target datalayout = "e-m:e-p270:32:32-p271:32:32-p272:64:64-i64:64-i128:128-f80:128-n8:16:32:64-S128"
target triple = "x86_64-pc-linux-gnu"

%"class.pxrInternal_v0_24__pxrReserved__::HdRendererPluginHandle" = type { ptr }

$__clang_call_terminate = comdat any

$_ZN32pxrInternal_v0_24__pxrReserved__22HdRendererPluginHandleC2Ev = comdat any

@_ZN32pxrInternal_v0_24__pxrReserved__22HdRendererPluginHandleC1ERKS0_ = unnamed_addr alias void (ptr, ptr), ptr @_ZN32pxrInternal_v0_24__pxrReserved__22HdRendererPluginHandleC2ERKS0_
@_ZN32pxrInternal_v0_24__pxrReserved__22HdRendererPluginHandleD1Ev = unnamed_addr alias void (ptr), ptr @_ZN32pxrInternal_v0_24__pxrReserved__22HdRendererPluginHandleD2Ev

; Function Attrs: mustprogress uwtable
define void @_ZN32pxrInternal_v0_24__pxrReserved__22HdRendererPluginHandleC2ERKS0_(ptr noundef nonnull align 8 dereferenceable(8) %0, ptr noundef nonnull align 8 dereferenceable(8) %1) unnamed_addr #0 align 2 {
  %3 = alloca ptr, align 8
  %4 = alloca ptr, align 8
  store ptr %0, ptr %3, align 8
  store ptr %1, ptr %4, align 8
  %5 = load ptr, ptr %3, align 8
  %6 = getelementptr inbounds nuw %"class.pxrInternal_v0_24__pxrReserved__::HdRendererPluginHandle", ptr %5, i32 0, i32 0
  %7 = load ptr, ptr %4, align 8
  %8 = getelementptr inbounds nuw %"class.pxrInternal_v0_24__pxrReserved__::HdRendererPluginHandle", ptr %7, i32 0, i32 0
  %9 = load ptr, ptr %8, align 8
  store ptr %9, ptr %6, align 8
  %10 = getelementptr inbounds nuw %"class.pxrInternal_v0_24__pxrReserved__::HdRendererPluginHandle", ptr %5, i32 0, i32 0
  %11 = load ptr, ptr %10, align 8
  %12 = icmp ne ptr %11, null
  br i1 %12, label %13, label %17

13:                                               ; preds = %2
  %14 = call noundef nonnull align 8 dereferenceable(96) ptr @_ZN32pxrInternal_v0_24__pxrReserved__24HdRendererPluginRegistry11GetInstanceEv()
  %15 = getelementptr inbounds nuw %"class.pxrInternal_v0_24__pxrReserved__::HdRendererPluginHandle", ptr %5, i32 0, i32 0
  %16 = load ptr, ptr %15, align 8
  call void @_ZN32pxrInternal_v0_24__pxrReserved__16HfPluginRegistry18AddPluginReferenceEPNS_12HfPluginBaseE(ptr noundef nonnull align 8 dereferenceable(89) %14, ptr noundef %16)
  br label %17

17:                                               ; preds = %13, %2
  ret void
}

declare noundef nonnull align 8 dereferenceable(96) ptr @_ZN32pxrInternal_v0_24__pxrReserved__24HdRendererPluginRegistry11GetInstanceEv() #1

declare void @_ZN32pxrInternal_v0_24__pxrReserved__16HfPluginRegistry18AddPluginReferenceEPNS_12HfPluginBaseE(ptr noundef nonnull align 8 dereferenceable(89), ptr noundef) #1

; Function Attrs: mustprogress nounwind uwtable
define void @_ZN32pxrInternal_v0_24__pxrReserved__22HdRendererPluginHandleD2Ev(ptr noundef nonnull align 8 dereferenceable(8) %0) unnamed_addr #2 align 2 personality ptr @__gxx_personality_v0 {
  %2 = alloca ptr, align 8
  store ptr %0, ptr %2, align 8
  %3 = load ptr, ptr %2, align 8
  %4 = invoke noundef nonnull align 8 dereferenceable(96) ptr @_ZN32pxrInternal_v0_24__pxrReserved__24HdRendererPluginRegistry11GetInstanceEv()
          to label %5 unwind label %9

5:                                                ; preds = %1
  %6 = getelementptr inbounds nuw %"class.pxrInternal_v0_24__pxrReserved__::HdRendererPluginHandle", ptr %3, i32 0, i32 0
  %7 = load ptr, ptr %6, align 8
  invoke void @_ZN32pxrInternal_v0_24__pxrReserved__16HfPluginRegistry13ReleasePluginEPNS_12HfPluginBaseE(ptr noundef nonnull align 8 dereferenceable(89) %4, ptr noundef %7)
          to label %8 unwind label %9

8:                                                ; preds = %5
  ret void

9:                                                ; preds = %5, %1
  %10 = landingpad { ptr, i32 }
          catch ptr null
  %11 = extractvalue { ptr, i32 } %10, 0
  call void @__clang_call_terminate(ptr %11) #4
  unreachable
}

declare i32 @__gxx_personality_v0(...)

; Function Attrs: noreturn nounwind uwtable
define linkonce_odr hidden void @__clang_call_terminate(ptr noundef %0) #3 comdat {
  %2 = call ptr @__cxa_begin_catch(ptr %0) #5
  call void @_ZSt9terminatev() #4
  unreachable
}

declare ptr @__cxa_begin_catch(ptr)

declare void @_ZSt9terminatev()

declare void @_ZN32pxrInternal_v0_24__pxrReserved__16HfPluginRegistry13ReleasePluginEPNS_12HfPluginBaseE(ptr noundef nonnull align 8 dereferenceable(89), ptr noundef) #1

; Function Attrs: mustprogress uwtable
define noundef nonnull align 8 dereferenceable(8) ptr @_ZN32pxrInternal_v0_24__pxrReserved__22HdRendererPluginHandleaSERKS0_(ptr noundef nonnull align 8 dereferenceable(8) %0, ptr noundef nonnull align 8 dereferenceable(8) %1) #0 align 2 {
  %3 = alloca ptr, align 8
  %4 = alloca ptr, align 8
  store ptr %0, ptr %3, align 8
  store ptr %1, ptr %4, align 8
  %5 = load ptr, ptr %3, align 8
  %6 = call noundef nonnull align 8 dereferenceable(96) ptr @_ZN32pxrInternal_v0_24__pxrReserved__24HdRendererPluginRegistry11GetInstanceEv()
  %7 = getelementptr inbounds nuw %"class.pxrInternal_v0_24__pxrReserved__::HdRendererPluginHandle", ptr %5, i32 0, i32 0
  %8 = load ptr, ptr %7, align 8
  call void @_ZN32pxrInternal_v0_24__pxrReserved__16HfPluginRegistry13ReleasePluginEPNS_12HfPluginBaseE(ptr noundef nonnull align 8 dereferenceable(89) %6, ptr noundef %8)
  %9 = load ptr, ptr %4, align 8
  %10 = getelementptr inbounds nuw %"class.pxrInternal_v0_24__pxrReserved__::HdRendererPluginHandle", ptr %9, i32 0, i32 0
  %11 = load ptr, ptr %10, align 8
  %12 = getelementptr inbounds nuw %"class.pxrInternal_v0_24__pxrReserved__::HdRendererPluginHandle", ptr %5, i32 0, i32 0
  store ptr %11, ptr %12, align 8
  %13 = getelementptr inbounds nuw %"class.pxrInternal_v0_24__pxrReserved__::HdRendererPluginHandle", ptr %5, i32 0, i32 0
  %14 = load ptr, ptr %13, align 8
  %15 = icmp ne ptr %14, null
  br i1 %15, label %16, label %20

16:                                               ; preds = %2
  %17 = call noundef nonnull align 8 dereferenceable(96) ptr @_ZN32pxrInternal_v0_24__pxrReserved__24HdRendererPluginRegistry11GetInstanceEv()
  %18 = getelementptr inbounds nuw %"class.pxrInternal_v0_24__pxrReserved__::HdRendererPluginHandle", ptr %5, i32 0, i32 0
  %19 = load ptr, ptr %18, align 8
  call void @_ZN32pxrInternal_v0_24__pxrReserved__16HfPluginRegistry18AddPluginReferenceEPNS_12HfPluginBaseE(ptr noundef nonnull align 8 dereferenceable(89) %17, ptr noundef %19)
  br label %20

20:                                               ; preds = %16, %2
  ret ptr %5
}

; Function Attrs: mustprogress uwtable
define noundef nonnull align 8 dereferenceable(8) ptr @_ZN32pxrInternal_v0_24__pxrReserved__22HdRendererPluginHandleaSERKDn(ptr noundef nonnull align 8 dereferenceable(8) %0, ptr noundef nonnull align 8 dereferenceable(8) %1) #0 align 2 personality ptr @__gxx_personality_v0 {
  %3 = alloca ptr, align 8
  %4 = alloca ptr, align 8
  %5 = alloca %"class.pxrInternal_v0_24__pxrReserved__::HdRendererPluginHandle", align 8
  %6 = alloca ptr, align 8
  %7 = alloca i32, align 4
  store ptr %0, ptr %3, align 8
  store ptr %1, ptr %4, align 8
  %8 = load ptr, ptr %3, align 8
  call void @_ZN32pxrInternal_v0_24__pxrReserved__22HdRendererPluginHandleC2Ev(ptr noundef nonnull align 8 dereferenceable(8) %5)
  %9 = invoke noundef nonnull align 8 dereferenceable(8) ptr @_ZN32pxrInternal_v0_24__pxrReserved__22HdRendererPluginHandleaSERKS0_(ptr noundef nonnull align 8 dereferenceable(8) %8, ptr noundef nonnull align 8 dereferenceable(8) %5)
          to label %10 unwind label %11

10:                                               ; preds = %2
  call void @_ZN32pxrInternal_v0_24__pxrReserved__22HdRendererPluginHandleD1Ev(ptr noundef nonnull align 8 dereferenceable(8) %5) #5
  ret ptr %8

11:                                               ; preds = %2
  %12 = landingpad { ptr, i32 }
          cleanup
  %13 = extractvalue { ptr, i32 } %12, 0
  store ptr %13, ptr %6, align 8
  %14 = extractvalue { ptr, i32 } %12, 1
  store i32 %14, ptr %7, align 4
  call void @_ZN32pxrInternal_v0_24__pxrReserved__22HdRendererPluginHandleD1Ev(ptr noundef nonnull align 8 dereferenceable(8) %5) #5
  br label %15

15:                                               ; preds = %11
  %16 = load ptr, ptr %6, align 8
  %17 = load i32, ptr %7, align 4
  %18 = insertvalue { ptr, i32 } poison, ptr %16, 0
  %19 = insertvalue { ptr, i32 } %18, i32 %17, 1
  resume { ptr, i32 } %19
}

; Function Attrs: mustprogress nounwind uwtable
define linkonce_odr void @_ZN32pxrInternal_v0_24__pxrReserved__22HdRendererPluginHandleC2Ev(ptr noundef nonnull align 8 dereferenceable(8) %0) unnamed_addr #2 comdat align 2 {
  %2 = alloca ptr, align 8
  store ptr %0, ptr %2, align 8
  %3 = load ptr, ptr %2, align 8
  %4 = getelementptr inbounds nuw %"class.pxrInternal_v0_24__pxrReserved__::HdRendererPluginHandle", ptr %3, i32 0, i32 0
  store ptr null, ptr %4, align 8
  ret void
}


!llvm.module.flags = !{!0, !1, !2, !3}

!0 = !{i32 1, !"wchar_size", i32 4}
!1 = !{i32 8, !"PIC Level", i32 2}
!2 = !{i32 7, !"uwtable", i32 2}
!3 = !{i32 7, !"frame-pointer", i32 2}
